target datalayout = "e-m:e-p270:32:32-p271:32:32-p272:64:64-i64:64-i128:128-f80:128-n8:16:32:64-S128"
target triple = "x86_64-pc-linux-gnu"

%"class.std::__shared_ptr" = type { ptr, %"class.std::__shared_count" }
%"class.std::__shared_count" = type { ptr }
%"class.std::shared_ptr.164" = type { %"class.std::__shared_ptr.165" }
%"class.std::__shared_ptr.165" = type { ptr, %"class.std::__shared_count" }
%"class.doctest::String" = type { %union.anon.436 }
%union.anon.436 = type { %"struct.doctest::String::view", [8 x i8] }
%"struct.doctest::String::view" = type { ptr, i32, i32 }
%"struct.doctest::detail::MessageBuilder" = type <{ %"struct.doctest::MessageData", ptr, i8, [7 x i8] }>
%"struct.doctest::MessageData" = type { %"class.doctest::String", ptr, i32, i32 }

@.str.61 = private unnamed_addr constant [105 x i8] c"generated/home/dtcxzyw/WorkSpace/Projects/compilers/llvm-opt-benchmark/bench/luau/luau/tests/Fixture.cpp\00", align 1
@.str.71 = private unnamed_addr constant [48 x i8] c"requireType: module scope data is not available\00", align 1

; Function Attrs: mustprogress nounwind uwtable
define linkonce_odr dso_local noundef ptr @_ZNKSt12__shared_ptrIN4Luau6ModuleELN9__gnu_cxx12_Lock_policyE2EE3getEv(ptr noundef nonnull align 8 dereferenceable(16) %0) #1 comdat align 2 {
  %2 = alloca ptr, align 8
  store ptr %0, ptr %2, align 8
  %3 = load ptr, ptr %2, align 8
  %4 = getelementptr inbounds %"class.std::__shared_ptr", ptr %3, i32 0, i32 0
  %5 = load ptr, ptr %4, align 8
  ret ptr %5
}

; Function Attrs: mustprogress nounwind uwtable
define linkonce_odr dso_local noundef ptr @_ZNKSt19__shared_ptr_accessIN4Luau6ModuleELN9__gnu_cxx12_Lock_policyE2ELb0ELb0EE6_M_getEv(ptr noundef nonnull align 1 dereferenceable(1) %0) #1 comdat align 2 {
  %2 = alloca ptr, align 8
  store ptr %0, ptr %2, align 8
  %3 = load ptr, ptr %2, align 8
  %4 = call noundef ptr @_ZNKSt12__shared_ptrIN4Luau6ModuleELN9__gnu_cxx12_Lock_policyE2EE3getEv(ptr noundef nonnull align 8 dereferenceable(16) %3) #2
  ret ptr %4
}

; Function Attrs: mustprogress uwtable
define linkonce_odr dso_local noundef nonnull align 8 dereferenceable(49) ptr @_ZN7doctest6detail14MessageBuildermlIA48_cEERS1_RKT_(ptr noundef nonnull align 8 dereferenceable(49) %0, ptr noundef nonnull align 1 dereferenceable(48) %1) #6 comdat align 2 {
  %3 = alloca ptr, align 8
  %4 = alloca ptr, align 8
  store ptr %0, ptr %3, align 8
  store ptr %1, ptr %4, align 8
  %5 = load ptr, ptr %3, align 8
  %6 = load ptr, ptr %4, align 8
  %7 = call noundef nonnull align 8 dereferenceable(49) ptr @_ZN7doctest6detail14MessageBuildercmIA48_cEERS1_RKT_(ptr noundef nonnull align 8 dereferenceable(49) %5, ptr noundef nonnull align 1 dereferenceable(48) %6)
  ret ptr %7
}

; Function Attrs: mustprogress nounwind uwtable
define linkonce_odr dso_local noundef ptr @_ZNKSt19__shared_ptr_accessIN4Luau6ModuleELN9__gnu_cxx12_Lock_policyE2ELb0ELb0EEptEv(ptr noundef nonnull align 1 dereferenceable(1) %0) #1 comdat align 2 {
  %2 = alloca ptr, align 8
  store ptr %0, ptr %2, align 8
  %3 = load ptr, ptr %2, align 8
  %4 = call noundef ptr @_ZNKSt19__shared_ptr_accessIN4Luau6ModuleELN9__gnu_cxx12_Lock_policyE2ELb0ELb0EE6_M_getEv(ptr noundef nonnull align 1 dereferenceable(1) %3) #2
  ret ptr %4
}

; Function Attrs: mustprogress uwtable
define dso_local noundef ptr @_ZN4Luau7Fixture11requireTypeERKSt10shared_ptrINS_6ModuleEERKNSt7__cxx1112basic_stringIcSt11char_traitsIcESaIcEEE(ptr noundef nonnull align 8 dereferenceable(2232) %0, ptr noundef nonnull align 8 dereferenceable(16) %1, ptr noundef nonnull align 8 dereferenceable(32) %2) #6 align 2 personality ptr @__gxx_personality_v0 {
  %4 = alloca ptr, align 8
  %5 = alloca ptr, align 8
  %6 = alloca ptr, align 8
  %7 = alloca %"struct.doctest::detail::MessageBuilder", align 8
  %8 = alloca ptr, align 8
  %9 = alloca i32, align 4
  %10 = alloca %"class.std::shared_ptr.164", align 8
  store ptr %0, ptr %4, align 8
  store ptr %1, ptr %5, align 8
  store ptr %2, ptr %6, align 8
  %11 = load ptr, ptr %4, align 8
  %12 = load ptr, ptr %5, align 8
  %13 = call noundef ptr @_ZNKSt19__shared_ptr_accessIN4Luau6ModuleELN9__gnu_cxx12_Lock_policyE2ELb0ELb0EEptEv(ptr noundef nonnull align 1 dereferenceable(1) %12) #2
  %14 = call noundef zeroext i1 @_ZNK4Luau6Module14hasModuleScopeEv(ptr noundef nonnull align 8 dereferenceable(952) %13)
  br i1 %14, label %29, label %15

15:                                               ; preds = %3
  br label %16

16:                                               ; preds = %15
  call void @_ZN7doctest6detail14MessageBuilderC1EPKciNS_10assertType4EnumE(ptr noundef nonnull align 8 dereferenceable(49) %7, ptr noundef @.str.61, i32 noundef 380, i32 noundef 4)
  %17 = invoke noundef nonnull align 8 dereferenceable(49) ptr @_ZN7doctest6detail14MessageBuildermlIA48_cEERS1_RKT_(ptr noundef nonnull align 8 dereferenceable(49) %7, ptr noundef nonnull align 1 dereferenceable(48) @.str.71)
          to label %18 unwind label %22

18:                                               ; preds = %16
  %19 = invoke noundef zeroext i1 @_ZN7doctest6detail14MessageBuilder3logEv(ptr noundef nonnull align 8 dereferenceable(49) %7)
          to label %20 unwind label %22

20:                                               ; preds = %18
  br i1 %19, label %21, label %26

21:                                               ; preds = %20
  call void asm sideeffect "int $$3\0A", "~{dirflag},~{fpsr},~{flags}"() #2, !srcloc !19
  br label %26

22:                                               ; preds = %26, %18, %16
  %23 = landingpad { ptr, i32 }
          cleanup
  %24 = extractvalue { ptr, i32 } %23, 0
  store ptr %24, ptr %8, align 8
  %25 = extractvalue { ptr, i32 } %23, 1
  store i32 %25, ptr %9, align 4
  call void @_ZN7doctest6detail14MessageBuilderD1Ev(ptr noundef nonnull align 8 dereferenceable(49) %7) #2
  br label %39

26:                                               ; preds = %21, %20
  invoke void @_ZN7doctest6detail14MessageBuilder5reactEv(ptr noundef nonnull align 8 dereferenceable(49) %7)
          to label %27 unwind label %22

27:                                               ; preds = %26
  call void @_ZN7doctest6detail14MessageBuilderD1Ev(ptr noundef nonnull align 8 dereferenceable(49) %7) #2
  br label %28

28:                                               ; preds = %27
  br label %29

29:                                               ; preds = %28, %3
  %30 = load ptr, ptr %5, align 8
  %31 = call noundef ptr @_ZNKSt19__shared_ptr_accessIN4Luau6ModuleELN9__gnu_cxx12_Lock_policyE2ELb0ELb0EEptEv(ptr noundef nonnull align 1 dereferenceable(1) %30) #2
  call void @_ZNK4Luau6Module14getModuleScopeEv(ptr dead_on_unwind writable sret(%"class.std::shared_ptr.164") align 8 %10, ptr noundef nonnull align 8 dereferenceable(952) %31)
  %32 = load ptr, ptr %6, align 8
  %33 = invoke noundef ptr @_ZN4Luau7Fixture11requireTypeERKSt10shared_ptrINS_5ScopeEERKNSt7__cxx1112basic_stringIcSt11char_traitsIcESaIcEEE(ptr noundef nonnull align 8 dereferenceable(2232) %11, ptr noundef nonnull align 8 dereferenceable(16) %10, ptr noundef nonnull align 8 dereferenceable(32) %32)
          to label %34 unwind label %35

34:                                               ; preds = %29
  call void @_ZNSt10shared_ptrIN4Luau5ScopeEED2Ev(ptr noundef nonnull align 8 dereferenceable(16) %10) #2
  ret ptr %33

35:                                               ; preds = %29
  %36 = landingpad { ptr, i32 }
          cleanup
  %37 = extractvalue { ptr, i32 } %36, 0
  store ptr %37, ptr %8, align 8
  %38 = extractvalue { ptr, i32 } %36, 1
  store i32 %38, ptr %9, align 4
  call void @_ZNSt10shared_ptrIN4Luau5ScopeEED2Ev(ptr noundef nonnull align 8 dereferenceable(16) %10) #2
  br label %39

39:                                               ; preds = %35, %22
  %40 = load ptr, ptr %8, align 8
  %41 = load i32, ptr %9, align 4
  %42 = insertvalue { ptr, i32 } poison, ptr %40, 0
  %43 = insertvalue { ptr, i32 } %42, i32 %41, 1
  resume { ptr, i32 } %43
}