; Function Attrs: mustprogress uwtable
define dso_local noundef ptr @_ZN4Luau7Fixture11requireTypeERKSt10shared_ptrINS_6ModuleEERKNSt7__cxx1112basic_stringIcSt11char_traitsIcESaIcEEE(ptr noundef nonnull readnone align 8 captures(none) dereferenceable(2232) %0, ptr noundef nonnull readonly align 8 captures(none) dereferenceable(16) %1, ptr noundef nonnull align 8 dereferenceable(32) %2) local_unnamed_addr #6 align 2 personality ptr @__gxx_personality_v0 {
  %4 = alloca %"struct.doctest::detail::MessageBuilder", align 8
  %5 = alloca %"class.std::shared_ptr.164", align 8
  %6 = load ptr, ptr %1, align 8
  %7 = tail call noundef zeroext i1 @_ZNK4Luau6Module14hasModuleScopeEv(ptr noundef nonnull align 8 dereferenceable(952) %6)
  br i1 %7, label %17, label %8

8:                                                ; preds = %3
  call void @_ZN7doctest6detail14MessageBuilderC1EPKciNS_10assertType4EnumE(ptr noundef nonnull align 8 dereferenceable(49) %4, ptr noundef nonnull @.str.61, i32 noundef 380, i32 noundef 4)
  %9 = invoke noundef nonnull align 8 dereferenceable(49) ptr @_ZN7doctest6detail14MessageBuildercmIA48_cEERS1_RKT_(ptr noundef nonnull align 8 dereferenceable(49) %4, ptr noundef nonnull align 1 dereferenceable(48) @.str.71)
          to label %_ZN7doctest6detail14MessageBuildermlIA48_cEERS1_RKT_.exit unwind label %13

_ZN7doctest6detail14MessageBuildermlIA48_cEERS1_RKT_.exit: ; preds = %8
  %10 = invoke noundef zeroext i1 @_ZN7doctest6detail14MessageBuilder3logEv(ptr noundef nonnull align 8 dereferenceable(49) %4)
          to label %11 unwind label %13

11:                                               ; preds = %_ZN7doctest6detail14MessageBuildermlIA48_cEERS1_RKT_.exit
  br i1 %10, label %12, label %15

12:                                               ; preds = %11
  call void asm sideeffect "int $$3\0A", "~{dirflag},~{fpsr},~{flags}"() #27, !srcloc !71
  br label %15

13:                                               ; preds = %8, %15, %_ZN7doctest6detail14MessageBuildermlIA48_cEERS1_RKT_.exit
  %14 = landingpad { ptr, i32 }
          cleanup
  call void @_ZN7doctest6detail14MessageBuilderD1Ev(ptr noundef nonnull align 8 dereferenceable(49) %4) #27
  br label %59

15:                                               ; preds = %12, %11
  invoke void @_ZN7doctest6detail14MessageBuilder5reactEv(ptr noundef nonnull align 8 dereferenceable(49) %4)
          to label %16 unwind label %13

16:                                               ; preds = %15
  call void @_ZN7doctest6detail14MessageBuilderD1Ev(ptr noundef nonnull align 8 dereferenceable(49) %4) #27
  br label %17

17:                                               ; preds = %16, %3
  %18 = load ptr, ptr %1, align 8
  call void @_ZNK4Luau6Module14getModuleScopeEv(ptr dead_on_unwind nonnull writable sret(%"class.std::shared_ptr.164") align 8 %5, ptr noundef nonnull align 8 dereferenceable(952) %18)
  %19 = invoke noundef ptr @_ZN4Luau7Fixture11requireTypeERKSt10shared_ptrINS_5ScopeEERKNSt7__cxx1112basic_stringIcSt11char_traitsIcESaIcEEE(ptr nonnull align 8 poison, ptr noundef nonnull align 8 dereferenceable(16) %5, ptr noundef nonnull align 8 dereferenceable(32) %2)
          to label %20 unwind label %57

20:                                               ; preds = %17
  %21 = getelementptr inbounds nuw i8, ptr %5, i64 8
  %22 = load ptr, ptr %21, align 8
  %.not.i.i.i = icmp eq ptr %22, null
  br i1 %.not.i.i.i, label %_ZNSt10shared_ptrIN4Luau5ScopeEED2Ev.exit, label %23

23:                                               ; preds = %20
  %24 = getelementptr inbounds nuw i8, ptr %22, i64 8
  %25 = load atomic i64, ptr %24 acquire, align 8
  %26 = icmp eq i64 %25, 4294967297
  %27 = trunc i64 %25 to i32
  br i1 %26, label %28, label %33

28:                                               ; preds = %23
  store i32 0, ptr %24, align 8
  %29 = getelementptr inbounds nuw i8, ptr %22, i64 12
  store i32 0, ptr %29, align 4
  %30 = load ptr, ptr %22, align 8
  %31 = getelementptr inbounds nuw i8, ptr %30, i64 16
  %32 = load ptr, ptr %31, align 8
  call void %32(ptr noundef nonnull align 8 dereferenceable(16) %22) #27
  br label %_ZNSt16_Sp_counted_baseILN9__gnu_cxx12_Lock_policyE2EE24_M_release_last_use_coldEv.exit.sink.split.i.i.i.i

33:                                               ; preds = %23
  %34 = load i8, ptr @__libc_single_threaded, align 1
  %.not.i.i.i.i = icmp eq i8 %34, 0
  br i1 %.not.i.i.i.i, label %37, label %35

35:                                               ; preds = %33
  %36 = add nsw i32 %27, -1
  store i32 %36, ptr %24, align 4
  br label %39

37:                                               ; preds = %33
  %38 = atomicrmw volatile add ptr %24, i32 -1 acq_rel, align 4
  br label %39

39:                                               ; preds = %37, %35
  %.0.i.i.i.i = phi i32 [ %27, %35 ], [ %38, %37 ]
  %40 = icmp eq i32 %.0.i.i.i.i, 1
  br i1 %40, label %41, label %_ZNSt10shared_ptrIN4Luau5ScopeEED2Ev.exit

41:                                               ; preds = %39
  %42 = load ptr, ptr %22, align 8
  %43 = getelementptr inbounds nuw i8, ptr %42, i64 16
  %44 = load ptr, ptr %43, align 8
  call void %44(ptr noundef nonnull align 8 dereferenceable(16) %22) #27
  %45 = getelementptr inbounds nuw i8, ptr %22, i64 12
  %46 = load i8, ptr @__libc_single_threaded, align 1
  %.not.i.i.i.i.i.i = icmp eq i8 %46, 0
  br i1 %.not.i.i.i.i.i.i, label %50, label %47

47:                                               ; preds = %41
  %48 = load i32, ptr %45, align 4
  %49 = add nsw i32 %48, -1
  store i32 %49, ptr %45, align 4
  br label %52

50:                                               ; preds = %41
  %51 = atomicrmw volatile add ptr %45, i32 -1 acq_rel, align 4
  br label %52

52:                                               ; preds = %50, %47
  %.0.i.i.i.i.i.i = phi i32 [ %48, %47 ], [ %51, %50 ]
  %53 = icmp eq i32 %.0.i.i.i.i.i.i, 1
  br i1 %53, label %_ZNSt16_Sp_counted_baseILN9__gnu_cxx12_Lock_policyE2EE24_M_release_last_use_coldEv.exit.sink.split.i.i.i.i, label %_ZNSt10shared_ptrIN4Luau5ScopeEED2Ev.exit

_ZNSt16_Sp_counted_baseILN9__gnu_cxx12_Lock_policyE2EE24_M_release_last_use_coldEv.exit.sink.split.i.i.i.i: ; preds = %52, %28
  %54 = load ptr, ptr %22, align 8
  %55 = getelementptr inbounds nuw i8, ptr %54, i64 24
  %56 = load ptr, ptr %55, align 8
  call void %56(ptr noundef nonnull align 8 dereferenceable(16) %22) #27
  br label %_ZNSt10shared_ptrIN4Luau5ScopeEED2Ev.exit

_ZNSt10shared_ptrIN4Luau5ScopeEED2Ev.exit:        ; preds = %20, %39, %52, %_ZNSt16_Sp_counted_baseILN9__gnu_cxx12_Lock_policyE2EE24_M_release_last_use_coldEv.exit.sink.split.i.i.i.i
  ret ptr %19

57:                                               ; preds = %17
  %58 = landingpad { ptr, i32 }
          cleanup
  call void @_ZNSt10shared_ptrIN4Luau5ScopeEED2Ev(ptr noundef nonnull align 8 dereferenceable(16) %5) #27
  br label %59

59:                                               ; preds = %57, %13
  %.pn = phi { ptr, i32 } [ %58, %57 ], [ %14, %13 ]
  resume { ptr, i32 } %.pn
}